target datalayout = "e-m:e-p270:32:32-p271:32:32-p272:64:64-i64:64-i128:128-f80:128-n8:16:32:64-S128"
target triple = "x86_64-pc-linux-gnu"

%struct.expert_field = type { i32, i32 }

@hf_nfapi_ue_type = internal global i32 0, align 4
@hf_nfapi_total_number_of_repetitions = internal global i32 0, align 4
@hf_nfapi_repetition_number = internal global i32 0, align 4
@hf_nfapi_initial_sf_io = internal global i32 0, align 4
@hf_nfapi_empty_symbols_due_to_retunning = internal global i32 0, align 4
@ei_invalid_range = internal global %struct.expert_field zeroinitializer, align 4
@.str.2212 = private unnamed_addr constant [29 x i8] c"Invalid ue type value [0..2]\00", align 1
@.str.2231 = private unnamed_addr constant [52 x i8] c"Invalid total number of repetitions value [1..2048]\00", align 1
@.str.2232 = private unnamed_addr constant [42 x i8] c"Invalid repetition number value [1..2048]\00", align 1
@.str.2233 = private unnamed_addr constant [51 x i8] c"Invalid repetition number value [0..10239, 0xFFFF]\00", align 1

; Function Attrs: nounwind uwtable
define internal void @dissect_ul_config_ulsch_pdu_rel13_value(ptr noundef %0, ptr noundef %1) #0 {
  %3 = alloca ptr, align 8
  %4 = alloca ptr, align 8
  %5 = alloca ptr, align 8
  %6 = alloca i32, align 4
  store ptr %0, ptr %3, align 8
  store ptr %1, ptr %4, align 8
  %7 = load ptr, ptr %3, align 8
  %8 = load i32, ptr @hf_nfapi_ue_type, align 4
  %9 = call ptr @ptvcursor_add_ret_uint(ptr noundef %7, i32 noundef %8, i32 noundef 1, i32 noundef 0, ptr noundef %6)
  store ptr %9, ptr %5, align 8
  %10 = load i32, ptr %6, align 4
  %11 = icmp ugt i32 %10, 2
  br i1 %11, label %12, label %16

12:                                               ; preds = %2
  %13 = load ptr, ptr %4, align 8
  %14 = load ptr, ptr %5, align 8
  %15 = call ptr (ptr, ptr, ptr, ptr, ...) @expert_add_info_format(ptr noundef %13, ptr noundef %14, ptr noundef @ei_invalid_range, ptr noundef @.str.2212)
  br label %16

16:                                               ; preds = %12, %2
  %17 = load ptr, ptr %3, align 8
  %18 = load i32, ptr @hf_nfapi_total_number_of_repetitions, align 4
  %19 = call ptr @ptvcursor_add_ret_uint(ptr noundef %17, i32 noundef %18, i32 noundef 2, i32 noundef 0, ptr noundef %6)
  store ptr %19, ptr %5, align 8
  %20 = load i32, ptr %6, align 4
  %21 = icmp uge i32 %20, 1
  br i1 %21, label %22, label %25

22:                                               ; preds = %16
  %23 = load i32, ptr %6, align 4
  %24 = icmp ule i32 %23, 2048
  br i1 %24, label %29, label %25

25:                                               ; preds = %22, %16
  %26 = load ptr, ptr %4, align 8
  %27 = load ptr, ptr %5, align 8
  %28 = call ptr (ptr, ptr, ptr, ptr, ...) @expert_add_info_format(ptr noundef %26, ptr noundef %27, ptr noundef @ei_invalid_range, ptr noundef @.str.2231)
  br label %29

29:                                               ; preds = %25, %22
  %30 = load ptr, ptr %3, align 8
  %31 = load i32, ptr @hf_nfapi_repetition_number, align 4
  %32 = call ptr @ptvcursor_add_ret_uint(ptr noundef %30, i32 noundef %31, i32 noundef 2, i32 noundef 0, ptr noundef %6)
  store ptr %32, ptr %5, align 8
  %33 = load i32, ptr %6, align 4
  %34 = icmp uge i32 %33, 1
  br i1 %34, label %35, label %38

35:                                               ; preds = %29
  %36 = load i32, ptr %6, align 4
  %37 = icmp ule i32 %36, 2048
  br i1 %37, label %42, label %38

38:                                               ; preds = %35, %29
  %39 = load ptr, ptr %4, align 8
  %40 = load ptr, ptr %5, align 8
  %41 = call ptr (ptr, ptr, ptr, ptr, ...) @expert_add_info_format(ptr noundef %39, ptr noundef %40, ptr noundef @ei_invalid_range, ptr noundef @.str.2232)
  br label %42

42:                                               ; preds = %38, %35
  %43 = load ptr, ptr %3, align 8
  %44 = load i32, ptr @hf_nfapi_initial_sf_io, align 4
  %45 = call ptr @ptvcursor_add_ret_uint(ptr noundef %43, i32 noundef %44, i32 noundef 2, i32 noundef 0, ptr noundef %6)
  store ptr %45, ptr %5, align 8
  %46 = load i32, ptr %6, align 4
  %47 = icmp ule i32 %46, 10239
  br i1 %47, label %55, label %48

48:                                               ; preds = %42
  %49 = load i32, ptr %6, align 4
  %50 = icmp eq i32 %49, 65535
  br i1 %50, label %55, label %51

51:                                               ; preds = %48
  %52 = load ptr, ptr %4, align 8
  %53 = load ptr, ptr %5, align 8
  %54 = call ptr (ptr, ptr, ptr, ptr, ...) @expert_add_info_format(ptr noundef %52, ptr noundef %53, ptr noundef @ei_invalid_range, ptr noundef @.str.2233)
  br label %55

55:                                               ; preds = %51, %48, %42
  %56 = load ptr, ptr %3, align 8
  %57 = load i32, ptr @hf_nfapi_empty_symbols_due_to_retunning, align 4
  %58 = call ptr @ptvcursor_add(ptr noundef %56, i32 noundef %57, i32 noundef 1, i32 noundef 0)
  ret void
}