; Function Attrs: nounwind uwtable
define internal void @dissect_ul_config_ulsch_pdu_rel13_value(ptr noundef %0, ptr noundef %1) #0 {
  %3 = alloca i32, align 4
  %4 = load i32, ptr @hf_nfapi_ue_type, align 4
  %5 = call ptr @ptvcursor_add_ret_uint(ptr noundef %0, i32 noundef %4, i32 noundef 1, i32 noundef 0, ptr noundef nonnull %3) #7
  %6 = load i32, ptr %3, align 4
  %7 = icmp ugt i32 %6, 2
  br i1 %7, label %8, label %10

8:                                                ; preds = %2
  %9 = call ptr (ptr, ptr, ptr, ptr, ...) @expert_add_info_format(ptr noundef %1, ptr noundef %5, ptr noundef nonnull @ei_invalid_range, ptr noundef nonnull @.str.2212) #7
  br label %10

10:                                               ; preds = %8, %2
  %11 = load i32, ptr @hf_nfapi_total_number_of_repetitions, align 4
  %12 = call ptr @ptvcursor_add_ret_uint(ptr noundef %0, i32 noundef %11, i32 noundef 2, i32 noundef 0, ptr noundef nonnull %3) #7
  %13 = load i32, ptr %3, align 4
  %14 = add i32 %13, -1
  %or.cond = icmp ult i32 %14, 2048
  br i1 %or.cond, label %17, label %15

15:                                               ; preds = %10
  %16 = call ptr (ptr, ptr, ptr, ptr, ...) @expert_add_info_format(ptr noundef %1, ptr noundef %12, ptr noundef nonnull @ei_invalid_range, ptr noundef nonnull @.str.2231) #7
  br label %17

17:                                               ; preds = %10, %15
  %18 = load i32, ptr @hf_nfapi_repetition_number, align 4
  %19 = call ptr @ptvcursor_add_ret_uint(ptr noundef %0, i32 noundef %18, i32 noundef 2, i32 noundef 0, ptr noundef nonnull %3) #7
  %20 = load i32, ptr %3, align 4
  %21 = add i32 %20, -1
  %or.cond3 = icmp ult i32 %21, 2048
  br i1 %or.cond3, label %24, label %22

22:                                               ; preds = %17
  %23 = call ptr (ptr, ptr, ptr, ptr, ...) @expert_add_info_format(ptr noundef %1, ptr noundef %19, ptr noundef nonnull @ei_invalid_range, ptr noundef nonnull @.str.2232) #7
  br label %24

24:                                               ; preds = %17, %22
  %25 = load i32, ptr @hf_nfapi_initial_sf_io, align 4
  %26 = call ptr @ptvcursor_add_ret_uint(ptr noundef %0, i32 noundef %25, i32 noundef 2, i32 noundef 0, ptr noundef nonnull %3) #7
  %27 = load i32, ptr %3, align 4
  %28 = icmp ult i32 %27, 10240
  %29 = icmp eq i32 %27, 65535
  %or.cond5 = or i1 %28, %29
  br i1 %or.cond5, label %32, label %30

30:                                               ; preds = %24
  %31 = call ptr (ptr, ptr, ptr, ptr, ...) @expert_add_info_format(ptr noundef %1, ptr noundef %26, ptr noundef nonnull @ei_invalid_range, ptr noundef nonnull @.str.2233) #7
  br label %32

32:                                               ; preds = %30, %24
  %33 = load i32, ptr @hf_nfapi_empty_symbols_due_to_retunning, align 4
  %34 = call ptr @ptvcursor_add(ptr noundef %0, i32 noundef %33, i32 noundef 1, i32 noundef 0) #7
  ret void
}